target datalayout = "e-m:e-p270:32:32-p271:32:32-p272:64:64-i64:64-i128:128-f80:128-n8:16:32:64-S128"
target triple = "x86_64-pc-linux-gnu"

%struct.List = type { i32, i32, i32, ptr, [0 x %union.ListCell] }
%union.ListCell = type { ptr }
%struct.ExplainState = type { ptr, i8, i8, i8, i8, i8, i8, i8, i8, i8, i8, i32, i32, i32, ptr, ptr, ptr, ptr, ptr, ptr, i8, i32, ptr }
%struct.StringInfoData = type { ptr, i32, i32, i32 }
%struct.ExplainWorkersState = type { i32, ptr, ptr, ptr, ptr }

; Function Attrs: inlinehint nounwind uwtable
define internal ptr @list_nth_cell(ptr noundef %0, i32 noundef %1) #6 {
  %3 = alloca ptr, align 8
  %4 = alloca i32, align 4
  store ptr %0, ptr %3, align 8
  store i32 %1, ptr %4, align 4
  %5 = load ptr, ptr %3, align 8
  %6 = getelementptr inbounds nuw %struct.List, ptr %5, i32 0, i32 3
  %7 = load ptr, ptr %6, align 8
  %8 = load i32, ptr %4, align 4
  %9 = sext i32 %8 to i64
  %10 = getelementptr inbounds %union.ListCell, ptr %7, i64 %9
  ret ptr %10
}

; Function Attrs: nounwind uwtable
define internal void @ExplainSaveGroup(ptr noundef %0, i32 noundef %1, ptr noundef %2) #0 {
  %4 = alloca ptr, align 8
  %5 = alloca i32, align 4
  %6 = alloca ptr, align 8
  store ptr %0, ptr %4, align 8
  store i32 %1, ptr %5, align 4
  store ptr %2, ptr %6, align 8
  %7 = load ptr, ptr %4, align 8
  %8 = getelementptr inbounds nuw %struct.ExplainState, ptr %7, i32 0, i32 12
  %9 = load i32, ptr %8, align 8
  switch i32 %9, label %52 [
    i32 0, label %52
    i32 1, label %10
    i32 2, label %16
    i32 3, label %34
  ]

10:                                               ; preds = %3
  %11 = load i32, ptr %5, align 4
  %12 = load ptr, ptr %4, align 8
  %13 = getelementptr inbounds nuw %struct.ExplainState, ptr %12, i32 0, i32 13
  %14 = load i32, ptr %13, align 4
  %15 = sub i32 %14, %11
  store i32 %15, ptr %13, align 4
  br label %52

16:                                               ; preds = %3
  %17 = load i32, ptr %5, align 4
  %18 = load ptr, ptr %4, align 8
  %19 = getelementptr inbounds nuw %struct.ExplainState, ptr %18, i32 0, i32 13
  %20 = load i32, ptr %19, align 4
  %21 = sub i32 %20, %17
  store i32 %21, ptr %19, align 4
  %22 = load ptr, ptr %4, align 8
  %23 = getelementptr inbounds nuw %struct.ExplainState, ptr %22, i32 0, i32 14
  %24 = load ptr, ptr %23, align 8
  %25 = call ptr @list_nth_cell(ptr noundef %24, i32 noundef 0)
  %26 = load i32, ptr %25, align 8
  %27 = load ptr, ptr %6, align 8
  store i32 %26, ptr %27, align 4
  %28 = load ptr, ptr %4, align 8
  %29 = getelementptr inbounds nuw %struct.ExplainState, ptr %28, i32 0, i32 14
  %30 = load ptr, ptr %29, align 8
  %31 = call ptr @list_delete_first(ptr noundef %30)
  %32 = load ptr, ptr %4, align 8
  %33 = getelementptr inbounds nuw %struct.ExplainState, ptr %32, i32 0, i32 14
  store ptr %31, ptr %33, align 8
  br label %52

34:                                               ; preds = %3
  %35 = load i32, ptr %5, align 4
  %36 = load ptr, ptr %4, align 8
  %37 = getelementptr inbounds nuw %struct.ExplainState, ptr %36, i32 0, i32 13
  %38 = load i32, ptr %37, align 4
  %39 = sub i32 %38, %35
  store i32 %39, ptr %37, align 4
  %40 = load ptr, ptr %4, align 8
  %41 = getelementptr inbounds nuw %struct.ExplainState, ptr %40, i32 0, i32 14
  %42 = load ptr, ptr %41, align 8
  %43 = call ptr @list_nth_cell(ptr noundef %42, i32 noundef 0)
  %44 = load i32, ptr %43, align 8
  %45 = load ptr, ptr %6, align 8
  store i32 %44, ptr %45, align 4
  %46 = load ptr, ptr %4, align 8
  %47 = getelementptr inbounds nuw %struct.ExplainState, ptr %46, i32 0, i32 14
  %48 = load ptr, ptr %47, align 8
  %49 = call ptr @list_delete_first(ptr noundef %48)
  %50 = load ptr, ptr %4, align 8
  %51 = getelementptr inbounds nuw %struct.ExplainState, ptr %50, i32 0, i32 14
  store ptr %49, ptr %51, align 8
  br label %52

52:                                               ; preds = %3, %34, %16, %10, %3
  ret void
}

; Function Attrs: nounwind uwtable
define internal void @ExplainCloseWorker(i32 noundef %0, ptr noundef %1) #0 {
  %3 = alloca i32, align 4
  %4 = alloca ptr, align 8
  %5 = alloca ptr, align 8
  store i32 %0, ptr %3, align 4
  store ptr %1, ptr %4, align 8
  call void @llvm.lifetime.start.p0(i64 8, ptr %5) #10
  %6 = load ptr, ptr %4, align 8
  %7 = getelementptr inbounds nuw %struct.ExplainState, ptr %6, i32 0, i32 22
  %8 = load ptr, ptr %7, align 8
  store ptr %8, ptr %5, align 8
  %9 = load ptr, ptr %4, align 8
  %10 = load ptr, ptr %5, align 8
  %11 = getelementptr inbounds nuw %struct.ExplainWorkersState, ptr %10, i32 0, i32 3
  %12 = load ptr, ptr %11, align 8
  %13 = load i32, ptr %3, align 4
  %14 = sext i32 %13 to i64
  %15 = getelementptr inbounds i32, ptr %12, i64 %14
  call void @ExplainSaveGroup(ptr noundef %9, i32 noundef 2, ptr noundef %15)
  %16 = load ptr, ptr %4, align 8
  %17 = getelementptr inbounds nuw %struct.ExplainState, ptr %16, i32 0, i32 12
  %18 = load i32, ptr %17, align 8
  %19 = icmp eq i32 %18, 0
  br i1 %19, label %20, label %66

20:                                               ; preds = %2
  br label %21

21:                                               ; preds = %47, %20
  %22 = load ptr, ptr %4, align 8
  %23 = getelementptr inbounds nuw %struct.ExplainState, ptr %22, i32 0, i32 0
  %24 = load ptr, ptr %23, align 8
  %25 = getelementptr inbounds nuw %struct.StringInfoData, ptr %24, i32 0, i32 1
  %26 = load i32, ptr %25, align 8
  %27 = icmp sgt i32 %26, 0
  br i1 %27, label %28, label %45

28:                                               ; preds = %21
  %29 = load ptr, ptr %4, align 8
  %30 = getelementptr inbounds nuw %struct.ExplainState, ptr %29, i32 0, i32 0
  %31 = load ptr, ptr %30, align 8
  %32 = getelementptr inbounds nuw %struct.StringInfoData, ptr %31, i32 0, i32 0
  %33 = load ptr, ptr %32, align 8
  %34 = load ptr, ptr %4, align 8
  %35 = getelementptr inbounds nuw %struct.ExplainState, ptr %34, i32 0, i32 0
  %36 = load ptr, ptr %35, align 8
  %37 = getelementptr inbounds nuw %struct.StringInfoData, ptr %36, i32 0, i32 1
  %38 = load i32, ptr %37, align 8
  %39 = sub i32 %38, 1
  %40 = sext i32 %39 to i64
  %41 = getelementptr inbounds i8, ptr %33, i64 %40
  %42 = load i8, ptr %41, align 1
  %43 = sext i8 %42 to i32
  %44 = icmp ne i32 %43, 10
  br label %45

45:                                               ; preds = %28, %21
  %46 = phi i1 [ false, %21 ], [ %44, %28 ]
  br i1 %46, label %47, label %61

47:                                               ; preds = %45
  %48 = load ptr, ptr %4, align 8
  %49 = getelementptr inbounds nuw %struct.ExplainState, ptr %48, i32 0, i32 0
  %50 = load ptr, ptr %49, align 8
  %51 = getelementptr inbounds nuw %struct.StringInfoData, ptr %50, i32 0, i32 0
  %52 = load ptr, ptr %51, align 8
  %53 = load ptr, ptr %4, align 8
  %54 = getelementptr inbounds nuw %struct.ExplainState, ptr %53, i32 0, i32 0
  %55 = load ptr, ptr %54, align 8
  %56 = getelementptr inbounds nuw %struct.StringInfoData, ptr %55, i32 0, i32 1
  %57 = load i32, ptr %56, align 8
  %58 = add i32 %57, -1
  store i32 %58, ptr %56, align 8
  %59 = sext i32 %58 to i64
  %60 = getelementptr inbounds i8, ptr %52, i64 %59
  store i8 0, ptr %60, align 1
  br label %21, !llvm.loop !32

61:                                               ; preds = %45
  %62 = load ptr, ptr %4, align 8
  %63 = getelementptr inbounds nuw %struct.ExplainState, ptr %62, i32 0, i32 13
  %64 = load i32, ptr %63, align 4
  %65 = add i32 %64, -1
  store i32 %65, ptr %63, align 4
  br label %66

66:                                               ; preds = %61, %2
  %67 = load ptr, ptr %5, align 8
  %68 = getelementptr inbounds nuw %struct.ExplainWorkersState, ptr %67, i32 0, i32 4
  %69 = load ptr, ptr %68, align 8
  %70 = load ptr, ptr %4, align 8
  %71 = getelementptr inbounds nuw %struct.ExplainState, ptr %70, i32 0, i32 0
  store ptr %69, ptr %71, align 8
  call void @llvm.lifetime.end.p0(i64 8, ptr %5) #10
  ret void
}