; Function Attrs: nounwind uwtable
define internal fastcc void @ExplainCloseWorker(i32 noundef %0, ptr noundef captures(none) %1) unnamed_addr #0 {
  %3 = getelementptr inbounds nuw i8, ptr %1, i64 88
  %4 = load ptr, ptr %3, align 8
  %5 = getelementptr inbounds nuw i8, ptr %4, i64 24
  %6 = load ptr, ptr %5, align 8
  %7 = sext i32 %0 to i64
  %8 = getelementptr inbounds i32, ptr %6, i64 %7
  %9 = getelementptr inbounds nuw i8, ptr %1, i64 24
  %10 = load i32, ptr %9, align 8
  switch i32 %10, label %ExplainSaveGroup.exit [
    i32 3, label %25
    i32 1, label %11
    i32 2, label %15
  ]

11:                                               ; preds = %2
  %12 = getelementptr inbounds nuw i8, ptr %1, i64 28
  %13 = load i32, ptr %12, align 4
  %14 = add i32 %13, -2
  store i32 %14, ptr %12, align 4
  br label %ExplainSaveGroup.exitthread-pre-split

15:                                               ; preds = %2
  %16 = getelementptr inbounds nuw i8, ptr %1, i64 28
  %17 = load i32, ptr %16, align 4
  %18 = add i32 %17, -2
  store i32 %18, ptr %16, align 4
  %19 = getelementptr inbounds nuw i8, ptr %1, i64 32
  %20 = load ptr, ptr %19, align 8
  %21 = getelementptr i8, ptr %20, i64 16
  %.val14.i = load ptr, ptr %21, align 8
  %22 = load i32, ptr %.val14.i, align 8
  store i32 %22, ptr %8, align 4
  %23 = load ptr, ptr %19, align 8
  %24 = tail call ptr @list_delete_first(ptr noundef %23) #13
  store ptr %24, ptr %19, align 8
  br label %ExplainSaveGroup.exitthread-pre-split

25:                                               ; preds = %2
  %26 = getelementptr inbounds nuw i8, ptr %1, i64 28
  %27 = load i32, ptr %26, align 4
  %28 = add i32 %27, -2
  store i32 %28, ptr %26, align 4
  %29 = getelementptr inbounds nuw i8, ptr %1, i64 32
  %30 = load ptr, ptr %29, align 8
  %31 = getelementptr i8, ptr %30, i64 16
  %.val.i = load ptr, ptr %31, align 8
  %32 = load i32, ptr %.val.i, align 8
  store i32 %32, ptr %8, align 4
  %33 = load ptr, ptr %29, align 8
  %34 = tail call ptr @list_delete_first(ptr noundef %33) #13
  store ptr %34, ptr %29, align 8
  br label %ExplainSaveGroup.exitthread-pre-split

ExplainSaveGroup.exitthread-pre-split:            ; preds = %25, %15, %11
  %.pr = load i32, ptr %9, align 8
  br label %ExplainSaveGroup.exit

ExplainSaveGroup.exit:                            ; preds = %ExplainSaveGroup.exitthread-pre-split, %2
  %35 = phi i32 [ %.pr, %ExplainSaveGroup.exitthread-pre-split ], [ %10, %2 ]
  %36 = icmp eq i32 %35, 0
  br i1 %36, label %.preheader, label %60

.preheader:                                       ; preds = %ExplainSaveGroup.exit
  %37 = load ptr, ptr %1, align 8
  %38 = getelementptr inbounds nuw i8, ptr %37, i64 8
  %39 = load i32, ptr %38, align 8
  %40 = icmp sgt i32 %39, 0
  br i1 %40, label %.lr.ph, label %.critedge

.lr.ph:                                           ; preds = %.preheader, %49
  %41 = phi i32 [ %55, %49 ], [ %39, %.preheader ]
  %42 = phi ptr [ %54, %49 ], [ %38, %.preheader ]
  %43 = phi ptr [ %53, %49 ], [ %37, %.preheader ]
  %44 = load ptr, ptr %43, align 8
  %45 = zext nneg i32 %41 to i64
  %46 = getelementptr i8, ptr %44, i64 %45
  %47 = getelementptr i8, ptr %46, i64 -1
  %48 = load i8, ptr %47, align 1
  %.not = icmp eq i8 %48, 10
  br i1 %.not, label %.critedge, label %49

49:                                               ; preds = %.lr.ph
  %50 = add nsw i32 %41, -1
  store i32 %50, ptr %42, align 8
  %51 = zext nneg i32 %50 to i64
  %52 = getelementptr inbounds nuw i8, ptr %44, i64 %51
  store i8 0, ptr %52, align 1
  %53 = load ptr, ptr %1, align 8
  %54 = getelementptr inbounds nuw i8, ptr %53, i64 8
  %55 = load i32, ptr %54, align 8
  %56 = icmp sgt i32 %55, 0
  br i1 %56, label %.lr.ph, label %.critedge, !llvm.loop !39

.critedge:                                        ; preds = %.lr.ph, %49, %.preheader
  %57 = getelementptr inbounds nuw i8, ptr %1, i64 28
  %58 = load i32, ptr %57, align 4
  %59 = add i32 %58, -1
  store i32 %59, ptr %57, align 4
  br label %60

60:                                               ; preds = %.critedge, %ExplainSaveGroup.exit
  %61 = getelementptr inbounds nuw i8, ptr %4, i64 32
  %62 = load ptr, ptr %61, align 8
  store ptr %62, ptr %1, align 8
  ret void
}